target datalayout = "e-m:e-p270:32:32-p271:32:32-p272:64:64-i64:64-i128:128-f80:128-n8:16:32:64-S128"
target triple = "x86_64-unknown-linux-gnu"

%struct.timespec = type { i64, i64 }

; Function Attrs: mustprogress nounwind uwtable
define internal noundef i64 @_ZN7rocksdb12_GLOBAL__N_110PosixClock8CPUNanosEv(ptr noundef nonnull align 8 dereferenceable(32) %this) unnamed_addr #3 align 2 {
entry:
  %this.addr = alloca ptr, align 8
  %ts = alloca %struct.timespec, align 8
  store ptr %this, ptr %this.addr, align 8
  %call = call i32 @clock_gettime(i32 noundef 3, ptr noundef %ts) #4
  %tv_sec = getelementptr inbounds %struct.timespec, ptr %ts, i32 0, i32 0
  %0 = load i64, ptr %tv_sec, align 8
  %mul = mul i64 %0, 1000000000
  %tv_nsec = getelementptr inbounds %struct.timespec, ptr %ts, i32 0, i32 1
  %1 = load i64, ptr %tv_nsec, align 8
  %add = add i64 %mul, %1
  ret i64 %add
}