; Function Attrs: mustprogress nounwind uwtable
define internal noundef i64 @_ZN7rocksdb12_GLOBAL__N_110PosixClock8CPUNanosEv(ptr nocapture nonnull readnone align 8 %this) unnamed_addr #7 align 2 {
entry:
  %ts = alloca %struct.timespec, align 8
  %call = call i32 @clock_gettime(i32 noundef 3, ptr noundef nonnull %ts) #22
  %0 = load i64, ptr %ts, align 8
  %mul = mul i64 %0, 1000000000
  %tv_nsec = getelementptr inbounds i8, ptr %ts, i64 8
  %1 = load i64, ptr %tv_nsec, align 8
  %add = add i64 %mul, %1
  ret i64 %add
}